
exploit2:     file format elf64-x86-64


Disassembly of section .init:

00000000004004b8 <_init>:
  4004b8:	48 83 ec 08          	sub    rsp,0x8
  4004bc:	48 8b 05 35 0b 20 00 	mov    rax,QWORD PTR [rip+0x200b35]        # 600ff8 <_DYNAMIC+0x1d0>
  4004c3:	48 85 c0             	test   rax,rax
  4004c6:	74 05                	je     4004cd <_init+0x15>
  4004c8:	e8 73 00 00 00       	call   400540 <execle@plt+0x10>
  4004cd:	48 83 c4 08          	add    rsp,0x8
  4004d1:	c3                   	ret    

Disassembly of section .plt:

00000000004004e0 <strlen@plt-0x10>:
  4004e0:	ff 35 22 0b 20 00    	push   QWORD PTR [rip+0x200b22]        # 601008 <_GLOBAL_OFFSET_TABLE_+0x8>
  4004e6:	ff 25 24 0b 20 00    	jmp    QWORD PTR [rip+0x200b24]        # 601010 <_GLOBAL_OFFSET_TABLE_+0x10>
  4004ec:	0f 1f 40 00          	nop    DWORD PTR [rax+0x0]

00000000004004f0 <strlen@plt>:
  4004f0:	ff 25 22 0b 20 00    	jmp    QWORD PTR [rip+0x200b22]        # 601018 <_GLOBAL_OFFSET_TABLE_+0x18>
  4004f6:	68 00 00 00 00       	push   0x0
  4004fb:	e9 e0 ff ff ff       	jmp    4004e0 <_init+0x28>

0000000000400500 <__libc_start_main@plt>:
  400500:	ff 25 1a 0b 20 00    	jmp    QWORD PTR [rip+0x200b1a]        # 601020 <_GLOBAL_OFFSET_TABLE_+0x20>
  400506:	68 01 00 00 00       	push   0x1
  40050b:	e9 d0 ff ff ff       	jmp    4004e0 <_init+0x28>

0000000000400510 <fprintf@plt>:
  400510:	ff 25 12 0b 20 00    	jmp    QWORD PTR [rip+0x200b12]        # 601028 <_GLOBAL_OFFSET_TABLE_+0x28>
  400516:	68 02 00 00 00       	push   0x2
  40051b:	e9 c0 ff ff ff       	jmp    4004e0 <_init+0x28>

0000000000400520 <exit@plt>:
  400520:	ff 25 0a 0b 20 00    	jmp    QWORD PTR [rip+0x200b0a]        # 601030 <_GLOBAL_OFFSET_TABLE_+0x30>
  400526:	68 03 00 00 00       	push   0x3
  40052b:	e9 b0 ff ff ff       	jmp    4004e0 <_init+0x28>

0000000000400530 <execle@plt>:
  400530:	ff 25 02 0b 20 00    	jmp    QWORD PTR [rip+0x200b02]        # 601038 <_GLOBAL_OFFSET_TABLE_+0x38>
  400536:	68 04 00 00 00       	push   0x4
  40053b:	e9 a0 ff ff ff       	jmp    4004e0 <_init+0x28>

Disassembly of section .plt.got:

0000000000400540 <.plt.got>:
  400540:	ff 25 b2 0a 20 00    	jmp    QWORD PTR [rip+0x200ab2]        # 600ff8 <_DYNAMIC+0x1d0>
  400546:	66 90                	xchg   ax,ax

Disassembly of section .text:

0000000000400550 <_start>:
  400550:	31 ed                	xor    ebp,ebp
  400552:	49 89 d1             	mov    r9,rdx
  400555:	5e                   	pop    rsi
  400556:	48 89 e2             	mov    rdx,rsp
  400559:	48 83 e4 f0          	and    rsp,0xfffffffffffffff0
  40055d:	50                   	push   rax
  40055e:	54                   	push   rsp
  40055f:	49 c7 c0 e0 07 40 00 	mov    r8,0x4007e0
  400566:	48 c7 c1 70 07 40 00 	mov    rcx,0x400770
  40056d:	48 c7 c7 46 06 40 00 	mov    rdi,0x400646
  400574:	e8 87 ff ff ff       	call   400500 <__libc_start_main@plt>
  400579:	f4                   	hlt    
  40057a:	66 0f 1f 44 00 00    	nop    WORD PTR [rax+rax*1+0x0]

0000000000400580 <deregister_tm_clones>:
  400580:	b8 9f 10 60 00       	mov    eax,0x60109f
  400585:	55                   	push   rbp
  400586:	48 2d 98 10 60 00    	sub    rax,0x601098
  40058c:	48 83 f8 0e          	cmp    rax,0xe
  400590:	48 89 e5             	mov    rbp,rsp
  400593:	76 1b                	jbe    4005b0 <deregister_tm_clones+0x30>
  400595:	b8 00 00 00 00       	mov    eax,0x0
  40059a:	48 85 c0             	test   rax,rax
  40059d:	74 11                	je     4005b0 <deregister_tm_clones+0x30>
  40059f:	5d                   	pop    rbp
  4005a0:	bf 98 10 60 00       	mov    edi,0x601098
  4005a5:	ff e0                	jmp    rax
  4005a7:	66 0f 1f 84 00 00 00 	nop    WORD PTR [rax+rax*1+0x0]
  4005ae:	00 00 
  4005b0:	5d                   	pop    rbp
  4005b1:	c3                   	ret    
  4005b2:	0f 1f 40 00          	nop    DWORD PTR [rax+0x0]
  4005b6:	66 2e 0f 1f 84 00 00 	nop    WORD PTR cs:[rax+rax*1+0x0]
  4005bd:	00 00 00 

00000000004005c0 <register_tm_clones>:
  4005c0:	be 98 10 60 00       	mov    esi,0x601098
  4005c5:	55                   	push   rbp
  4005c6:	48 81 ee 98 10 60 00 	sub    rsi,0x601098
  4005cd:	48 c1 fe 03          	sar    rsi,0x3
  4005d1:	48 89 e5             	mov    rbp,rsp
  4005d4:	48 89 f0             	mov    rax,rsi
  4005d7:	48 c1 e8 3f          	shr    rax,0x3f
  4005db:	48 01 c6             	add    rsi,rax
  4005de:	48 d1 fe             	sar    rsi,1
  4005e1:	74 15                	je     4005f8 <register_tm_clones+0x38>
  4005e3:	b8 00 00 00 00       	mov    eax,0x0
  4005e8:	48 85 c0             	test   rax,rax
  4005eb:	74 0b                	je     4005f8 <register_tm_clones+0x38>
  4005ed:	5d                   	pop    rbp
  4005ee:	bf 98 10 60 00       	mov    edi,0x601098
  4005f3:	ff e0                	jmp    rax
  4005f5:	0f 1f 00             	nop    DWORD PTR [rax]
  4005f8:	5d                   	pop    rbp
  4005f9:	c3                   	ret    
  4005fa:	66 0f 1f 44 00 00    	nop    WORD PTR [rax+rax*1+0x0]

0000000000400600 <__do_global_dtors_aux>:
  400600:	80 3d a1 0a 20 00 00 	cmp    BYTE PTR [rip+0x200aa1],0x0        # 6010a8 <completed.7594>
  400607:	75 11                	jne    40061a <__do_global_dtors_aux+0x1a>
  400609:	55                   	push   rbp
  40060a:	48 89 e5             	mov    rbp,rsp
  40060d:	e8 6e ff ff ff       	call   400580 <deregister_tm_clones>
  400612:	5d                   	pop    rbp
  400613:	c6 05 8e 0a 20 00 01 	mov    BYTE PTR [rip+0x200a8e],0x1        # 6010a8 <completed.7594>
  40061a:	f3 c3                	repz ret 
  40061c:	0f 1f 40 00          	nop    DWORD PTR [rax+0x0]

0000000000400620 <frame_dummy>:
  400620:	bf 20 0e 60 00       	mov    edi,0x600e20
  400625:	48 83 3f 00          	cmp    QWORD PTR [rdi],0x0
  400629:	75 05                	jne    400630 <frame_dummy+0x10>
  40062b:	eb 93                	jmp    4005c0 <register_tm_clones>
  40062d:	0f 1f 00             	nop    DWORD PTR [rax]
  400630:	b8 00 00 00 00       	mov    eax,0x0
  400635:	48 85 c0             	test   rax,rax
  400638:	74 f1                	je     40062b <frame_dummy+0xb>
  40063a:	55                   	push   rbp
  40063b:	48 89 e5             	mov    rbp,rsp
  40063e:	ff d0                	call   rax
  400640:	5d                   	pop    rbp
  400641:	e9 7a ff ff ff       	jmp    4005c0 <register_tm_clones>

0000000000400646 <main>:
  400646:	55                   	push   rbp
  400647:	48 89 e5             	mov    rbp,rsp
  40064a:	48 81 ec 00 01 00 00 	sub    rsp,0x100
  400651:	89 bd 0c ff ff ff    	mov    DWORD PTR [rbp-0xf4],edi
  400657:	48 89 b5 00 ff ff ff 	mov    QWORD PTR [rbp-0x100],rsi
  40065e:	64 48 8b 04 25 28 00 	mov    rax,QWORD PTR fs:0x28
  400665:	00 00 
  400667:	48 89 45 f8          	mov    QWORD PTR [rbp-0x8],rax
  40066b:	31 c0                	xor    eax,eax
  40066d:	48 c7 85 20 ff ff ff 	mov    QWORD PTR [rbp-0xe0],0x601060
  400674:	60 10 60 00 
  400678:	48 c7 85 28 ff ff ff 	mov    QWORD PTR [rbp-0xd8],0x0
  40067f:	00 00 00 00 
  400683:	48 c7 85 30 ff ff ff 	mov    QWORD PTR [rbp-0xd0],0x4007f4
  40068a:	f4 07 40 00 
  40068e:	48 8d 85 50 ff ff ff 	lea    rax,[rbp-0xb0]
  400695:	48 89 85 38 ff ff ff 	mov    QWORD PTR [rbp-0xc8],rax
  40069c:	48 c7 85 40 ff ff ff 	mov    QWORD PTR [rbp-0xc0],0x0
  4006a3:	00 00 00 00 
  4006a7:	bf 60 10 60 00       	mov    edi,0x601060
  4006ac:	e8 3f fe ff ff       	call   4004f0 <strlen@plt>
  4006b1:	ba ef ff ff bf       	mov    edx,0xbfffffef
  4006b6:	29 c2                	sub    edx,eax
  4006b8:	89 d0                	mov    eax,edx
  4006ba:	89 85 14 ff ff ff    	mov    DWORD PTR [rbp-0xec],eax
  4006c0:	48 8b 05 d9 09 20 00 	mov    rax,QWORD PTR [rip+0x2009d9]        # 6010a0 <stderr@@GLIBC_2.2.5>
  4006c7:	8b 95 14 ff ff ff    	mov    edx,DWORD PTR [rbp-0xec]
  4006cd:	be 00 08 40 00       	mov    esi,0x400800
  4006d2:	48 89 c7             	mov    rdi,rax
  4006d5:	b8 00 00 00 00       	mov    eax,0x0
  4006da:	e8 31 fe ff ff       	call   400510 <fprintf@plt>
  4006df:	48 8d 85 50 ff ff ff 	lea    rax,[rbp-0xb0]
  4006e6:	48 83 c0 02          	add    rax,0x2
  4006ea:	48 89 85 18 ff ff ff 	mov    QWORD PTR [rbp-0xe8],rax
  4006f1:	c7 85 10 ff ff ff 00 	mov    DWORD PTR [rbp-0xf0],0x0
  4006f8:	00 00 00 
  4006fb:	eb 21                	jmp    40071e <main+0xd8>
  4006fd:	48 8b 85 18 ff ff ff 	mov    rax,QWORD PTR [rbp-0xe8]
  400704:	48 8d 50 04          	lea    rdx,[rax+0x4]
  400708:	48 89 95 18 ff ff ff 	mov    QWORD PTR [rbp-0xe8],rdx
  40070f:	8b 95 14 ff ff ff    	mov    edx,DWORD PTR [rbp-0xec]
  400715:	89 10                	mov    DWORD PTR [rax],edx
  400717:	83 85 10 ff ff ff 04 	add    DWORD PTR [rbp-0xf0],0x4
  40071e:	81 bd 10 ff ff ff 9f 	cmp    DWORD PTR [rbp-0xf0],0x9f
  400725:	00 00 00 
  400728:	7e d3                	jle    4006fd <main+0xb7>
  40072a:	48 8b 85 30 ff ff ff 	mov    rax,QWORD PTR [rbp-0xd0]
  400731:	48 8d 8d 20 ff ff ff 	lea    rcx,[rbp-0xe0]
  400738:	48 8d 95 50 ff ff ff 	lea    rdx,[rbp-0xb0]
  40073f:	48 8d b5 30 ff ff ff 	lea    rsi,[rbp-0xd0]
  400746:	49 89 c8             	mov    r8,rcx
  400749:	b9 00 00 00 00       	mov    ecx,0x0
  40074e:	48 89 c7             	mov    rdi,rax
  400751:	b8 00 00 00 00       	mov    eax,0x0
  400756:	e8 d5 fd ff ff       	call   400530 <execle@plt>
  40075b:	bf 01 00 00 00       	mov    edi,0x1
  400760:	e8 bb fd ff ff       	call   400520 <exit@plt>
  400765:	66 2e 0f 1f 84 00 00 	nop    WORD PTR cs:[rax+rax*1+0x0]
  40076c:	00 00 00 
  40076f:	90                   	nop

0000000000400770 <__libc_csu_init>:
  400770:	41 57                	push   r15
  400772:	41 56                	push   r14
  400774:	41 89 ff             	mov    r15d,edi
  400777:	41 55                	push   r13
  400779:	41 54                	push   r12
  40077b:	4c 8d 25 8e 06 20 00 	lea    r12,[rip+0x20068e]        # 600e10 <__frame_dummy_init_array_entry>
  400782:	55                   	push   rbp
  400783:	48 8d 2d 8e 06 20 00 	lea    rbp,[rip+0x20068e]        # 600e18 <__init_array_end>
  40078a:	53                   	push   rbx
  40078b:	49 89 f6             	mov    r14,rsi
  40078e:	49 89 d5             	mov    r13,rdx
  400791:	4c 29 e5             	sub    rbp,r12
  400794:	48 83 ec 08          	sub    rsp,0x8
  400798:	48 c1 fd 03          	sar    rbp,0x3
  40079c:	e8 17 fd ff ff       	call   4004b8 <_init>
  4007a1:	48 85 ed             	test   rbp,rbp
  4007a4:	74 20                	je     4007c6 <__libc_csu_init+0x56>
  4007a6:	31 db                	xor    ebx,ebx
  4007a8:	0f 1f 84 00 00 00 00 	nop    DWORD PTR [rax+rax*1+0x0]
  4007af:	00 
  4007b0:	4c 89 ea             	mov    rdx,r13
  4007b3:	4c 89 f6             	mov    rsi,r14
  4007b6:	44 89 ff             	mov    edi,r15d
  4007b9:	41 ff 14 dc          	call   QWORD PTR [r12+rbx*8]
  4007bd:	48 83 c3 01          	add    rbx,0x1
  4007c1:	48 39 eb             	cmp    rbx,rbp
  4007c4:	75 ea                	jne    4007b0 <__libc_csu_init+0x40>
  4007c6:	48 83 c4 08          	add    rsp,0x8
  4007ca:	5b                   	pop    rbx
  4007cb:	5d                   	pop    rbp
  4007cc:	41 5c                	pop    r12
  4007ce:	41 5d                	pop    r13
  4007d0:	41 5e                	pop    r14
  4007d2:	41 5f                	pop    r15
  4007d4:	c3                   	ret    
  4007d5:	90                   	nop
  4007d6:	66 2e 0f 1f 84 00 00 	nop    WORD PTR cs:[rax+rax*1+0x0]
  4007dd:	00 00 00 

00000000004007e0 <__libc_csu_fini>:
  4007e0:	f3 c3                	repz ret 

Disassembly of section .fini:

00000000004007e4 <_fini>:
  4007e4:	48 83 ec 08          	sub    rsp,0x8
  4007e8:	48 83 c4 08          	add    rsp,0x8
  4007ec:	c3                   	ret    
