	.file	"processed.c"
	.text
.Ltext0:
	.globl	get_sp
	.type	get_sp, @function
get_sp:
.LFB0:
	.file 1 "get_sp.c"
	.loc 1 3 0
	.cfi_startproc
	pushl	%ebp
	.cfi_def_cfa_offset 8
	.cfi_offset 5, -8
	movl	%esp, %ebp
	.cfi_def_cfa_register 5
	.loc 1 4 0
#APP
# 4 "get_sp.c" 1
	movl %esp, %eax
# 0 "" 2
	.loc 1 5 0
#NO_APP
	nop
	popl	%ebp
	.cfi_restore 5
	.cfi_def_cfa 4, 4
	ret
	.cfi_endproc
.LFE0:
	.size	get_sp, .-get_sp
	.section	.rodata
.LC0:
	.string	"Stack pointer (ESP): 0x%x\n"
	.text
	.globl	main
	.type	main, @function
main:
.LFB1:
	.loc 1 7 0
	.cfi_startproc
	leal	4(%esp), %ecx
	.cfi_def_cfa 1, 0
	andl	$-16, %esp
	pushl	-4(%ecx)
	pushl	%ebp
	.cfi_escape 0x10,0x5,0x2,0x75,0
	movl	%esp, %ebp
	pushl	%ecx
	.cfi_escape 0xf,0x3,0x75,0x7c,0x6
	subl	$4, %esp
	.loc 1 8 0
	call	get_sp
	subl	$8, %esp
	pushl	%eax
	pushl	$.LC0
	call	printf
	addl	$16, %esp
	movl	$0, %eax
	.loc 1 9 0
	movl	-4(%ebp), %ecx
	.cfi_def_cfa 1, 0
	leave
	.cfi_restore 5
	leal	-4(%ecx), %esp
	.cfi_def_cfa 4, 4
	ret
	.cfi_endproc
.LFE1:
	.size	main, .-main
.Letext0:
	.file 2 "/usr/lib/gcc/x86_64-redhat-linux/7/include/stddef.h"
	.file 3 "/usr/include/bits/types.h"
	.file 4 "/usr/include/libio.h"
	.file 5 "/usr/include/stdio.h"
	.file 6 "/usr/include/bits/sys_errlist.h"
	.section	.note.GNU-stack,"",@progbits
